; Function Attrs: mustprogress nounwind uwtable
define hidden ptr @_ZN23java_lang_reflect_Field6createEP10JavaThread(ptr noundef %0) local_unnamed_addr #0 align 2 {
  %2 = load ptr, ptr getelementptr inbounds (i8, ptr @_ZN6Symbol11_vm_symbolsE, i64 440), align 8
  %3 = tail call noundef ptr @_ZN16SystemDictionary15resolve_or_failEP6Symbol6HandleS2_bP10JavaThread(ptr noundef %2, ptr null, ptr null, i1 noundef zeroext true, ptr noundef %0) #19
  %4 = getelementptr inbounds i8, ptr %0, i64 8
  %5 = load ptr, ptr %4, align 8
  %.not = icmp eq ptr %5, null
  br i1 %.not, label %6, label %13

6:                                                ; preds = %1
  %7 = load ptr, ptr %3, align 8
  %8 = getelementptr inbounds i8, ptr %7, i64 176
  %9 = load ptr, ptr %8, align 8
  tail call void %9(ptr noundef nonnull align 8 dereferenceable(464) %3, ptr noundef nonnull %0) #19
  %10 = load ptr, ptr %4, align 8
  %.not9 = icmp eq ptr %10, null
  br i1 %.not9, label %11, label %13

11:                                               ; preds = %6
  %12 = tail call ptr @_ZN13InstanceKlass24allocate_instance_handleEP10JavaThread(ptr noundef nonnull align 8 dereferenceable(464) %3, ptr noundef nonnull %0) #19
  br label %13

13:                                               ; preds = %6, %1, %11
  %.sroa.0.0 = phi ptr [ %12, %11 ], [ null, %1 ], [ null, %6 ]
  ret ptr %.sroa.0.0
}